target datalayout = "e-m:e-p270:32:32-p271:32:32-p272:64:64-i64:64-i128:128-f80:128-n8:16:32:64-S128"
target triple = "x86_64-pc-linux-gnu"

%"class.std::__cxx11::basic_string" = type { %"struct.std::__cxx11::basic_string<char>::_Alloc_hider", i64, %union.anon }
%"struct.std::__cxx11::basic_string<char>::_Alloc_hider" = type { ptr }
%union.anon = type { i64, [8 x i8] }
%struct.PJconsts = type { ptr, ptr, ptr, ptr, ptr, ptr, ptr, ptr, ptr, ptr, ptr, ptr, i32, ptr, ptr, ptr, ptr, ptr, ptr, ptr, ptr, double, double, double, double, double, double, double, double, double, double, double, double, double, double, double, double, double, double, double, double, double, double, i32, i32, i32, i32, i32, i32, i32, i32, i32, i32, i32, ptr, ptr, ptr, ptr, ptr, ptr, double, double, double, double, double, double, double, double, double, double, double, i32, [7 x double], i32, ptr, ptr, double, double, i32, [4 x i8], %"class.std::shared_ptr", i8, double, i8, %"class.std::__cxx11::basic_string", %"class.std::__cxx11::basic_string", %"class.std::__cxx11::basic_string", i8, %"class.std::vector", i32, %"class.std::vector.9", i32, i8, i8, i8, ptr }
%"class.std::shared_ptr" = type { %"class.std::__shared_ptr" }
%"class.std::__shared_ptr" = type { ptr, %"class.std::__shared_count" }
%"class.std::__shared_count" = type { ptr }
%"class.std::vector" = type { %"struct.std::_Vector_base" }
%"struct.std::_Vector_base" = type { %"struct.std::_Vector_base<osgeo::proj::operation::GridDescription, std::allocator<osgeo::proj::operation::GridDescription>>::_Vector_impl" }
%"struct.std::_Vector_base<osgeo::proj::operation::GridDescription, std::allocator<osgeo::proj::operation::GridDescription>>::_Vector_impl" = type { %"struct.std::_Vector_base<osgeo::proj::operation::GridDescription, std::allocator<osgeo::proj::operation::GridDescription>>::_Vector_impl_data" }
%"struct.std::_Vector_base<osgeo::proj::operation::GridDescription, std::allocator<osgeo::proj::operation::GridDescription>>::_Vector_impl_data" = type { ptr, ptr, ptr }
%"class.std::vector.9" = type { %"struct.std::_Vector_base.10" }
%"struct.std::_Vector_base.10" = type { %"struct.std::_Vector_base<PJCoordOperation, std::allocator<PJCoordOperation>>::_Vector_impl" }
%"struct.std::_Vector_base<PJCoordOperation, std::allocator<PJCoordOperation>>::_Vector_impl" = type { %"struct.std::_Vector_base<PJCoordOperation, std::allocator<PJCoordOperation>>::_Vector_impl_data" }
%"struct.std::_Vector_base<PJCoordOperation, std::allocator<PJCoordOperation>>::_Vector_impl_data" = type { ptr, ptr, ptr }
%"struct.(anonymous namespace)::pj_s2" = type { i32, double, double, double, i32 }
%struct.PJ_LP = type { double, double }
%struct.PJ_XY = type { double, double }
%struct.PJ_XYZ = type { double, double, double }

; Function Attrs: mustprogress nounwind uwtable
define internal noundef double @_ZL6UVtoSTd16S2ProjectionType(double noundef %0, i32 noundef %1) #3 {
  %3 = alloca double, align 8
  %4 = alloca i32, align 4
  %5 = alloca double, align 8
  %6 = alloca double, align 8
  store double %0, ptr %3, align 8, !tbaa !86
  store i32 %1, ptr %4, align 4, !tbaa !3
  call void @llvm.lifetime.start.p0(i64 8, ptr %5) #5
  %7 = load double, ptr %3, align 8, !tbaa !86
  store double %7, ptr %5, align 8, !tbaa !86
  %8 = load i32, ptr %4, align 4, !tbaa !3
  switch i32 %8, label %33 [
    i32 0, label %9
    i32 1, label %13
    i32 2, label %27
    i32 3, label %33
  ]

9:                                                ; preds = %2
  %10 = load double, ptr %3, align 8, !tbaa !86
  %11 = fadd double %10, 1.000000e+00
  %12 = fmul double 5.000000e-01, %11
  store double %12, ptr %5, align 8, !tbaa !86
  br label %33

13:                                               ; preds = %2
  %14 = load double, ptr %3, align 8, !tbaa !86
  %15 = fcmp oge double %14, 0.000000e+00
  br i1 %15, label %16, label %21

16:                                               ; preds = %13
  %17 = load double, ptr %3, align 8, !tbaa !86
  %18 = call double @llvm.fmuladd.f64(double 3.000000e+00, double %17, double 1.000000e+00)
  %19 = call double @sqrt(double noundef %18) #5, !tbaa !92
  %20 = fmul double 5.000000e-01, %19
  store double %20, ptr %5, align 8, !tbaa !86
  br label %26

21:                                               ; preds = %13
  %22 = load double, ptr %3, align 8, !tbaa !86
  %23 = call double @llvm.fmuladd.f64(double -3.000000e+00, double %22, double 1.000000e+00)
  %24 = call double @sqrt(double noundef %23) #5, !tbaa !92
  %25 = call double @llvm.fmuladd.f64(double -5.000000e-01, double %24, double 1.000000e+00)
  store double %25, ptr %5, align 8, !tbaa !86
  br label %26

26:                                               ; preds = %21, %16
  br label %33

27:                                               ; preds = %2
  call void @llvm.lifetime.start.p0(i64 8, ptr %6) #5
  %28 = load double, ptr %3, align 8, !tbaa !86
  %29 = call double @atan(double noundef %28) #5, !tbaa !92
  store volatile double %29, ptr %6, align 8, !tbaa !86
  %30 = load volatile double, ptr %6, align 8, !tbaa !86
  %31 = fadd double %30, 0x3FE921FB54442D18
  %32 = fmul double 0x3FE45F306DC9C883, %31
  store double %32, ptr %5, align 8, !tbaa !86
  call void @llvm.lifetime.end.p0(i64 8, ptr %6) #5
  br label %33

33:                                               ; preds = %2, %2, %27, %26, %9
  %34 = load double, ptr %5, align 8, !tbaa !86
  call void @llvm.lifetime.end.p0(i64 8, ptr %5) #5
  ret double %34
}

; Function Attrs: inlinehint mustprogress nounwind uwtable
define linkonce_odr hidden void @_Z16ValidFaceXYZtoUViRK6PJ_XYZPdS2_(i32 noundef %0, ptr noundef nonnull align 8 dereferenceable(24) %1, ptr noundef %2, ptr noundef %3) #4 comdat {
  %5 = alloca i32, align 4
  %6 = alloca ptr, align 8
  %7 = alloca ptr, align 8
  %8 = alloca ptr, align 8
  store i32 %0, ptr %5, align 4, !tbaa !92
  store ptr %1, ptr %6, align 8, !tbaa !16
  store ptr %2, ptr %7, align 8, !tbaa !117
  store ptr %3, ptr %8, align 8, !tbaa !117
  %9 = load i32, ptr %5, align 4, !tbaa !92
  switch i32 %9, label %99 [
    i32 0, label %10
    i32 1, label %27
    i32 2, label %45
    i32 3, label %64
    i32 4, label %81
  ]

10:                                               ; preds = %4
  %11 = load ptr, ptr %6, align 8, !tbaa !16
  %12 = getelementptr inbounds nuw %struct.PJ_XYZ, ptr %11, i32 0, i32 1
  %13 = load double, ptr %12, align 8, !tbaa !90
  %14 = load ptr, ptr %6, align 8, !tbaa !16
  %15 = getelementptr inbounds nuw %struct.PJ_XYZ, ptr %14, i32 0, i32 0
  %16 = load double, ptr %15, align 8, !tbaa !88
  %17 = fdiv double %13, %16
  %18 = load ptr, ptr %7, align 8, !tbaa !117
  store double %17, ptr %18, align 8, !tbaa !86
  %19 = load ptr, ptr %6, align 8, !tbaa !16
  %20 = getelementptr inbounds nuw %struct.PJ_XYZ, ptr %19, i32 0, i32 2
  %21 = load double, ptr %20, align 8, !tbaa !91
  %22 = load ptr, ptr %6, align 8, !tbaa !16
  %23 = getelementptr inbounds nuw %struct.PJ_XYZ, ptr %22, i32 0, i32 0
  %24 = load double, ptr %23, align 8, !tbaa !88
  %25 = fdiv double %21, %24
  %26 = load ptr, ptr %8, align 8, !tbaa !117
  store double %25, ptr %26, align 8, !tbaa !86
  br label %118

27:                                               ; preds = %4
  %28 = load ptr, ptr %6, align 8, !tbaa !16
  %29 = getelementptr inbounds nuw %struct.PJ_XYZ, ptr %28, i32 0, i32 0
  %30 = load double, ptr %29, align 8, !tbaa !88
  %31 = fneg double %30
  %32 = load ptr, ptr %6, align 8, !tbaa !16
  %33 = getelementptr inbounds nuw %struct.PJ_XYZ, ptr %32, i32 0, i32 1
  %34 = load double, ptr %33, align 8, !tbaa !90
  %35 = fdiv double %31, %34
  %36 = load ptr, ptr %7, align 8, !tbaa !117
  store double %35, ptr %36, align 8, !tbaa !86
  %37 = load ptr, ptr %6, align 8, !tbaa !16
  %38 = getelementptr inbounds nuw %struct.PJ_XYZ, ptr %37, i32 0, i32 2
  %39 = load double, ptr %38, align 8, !tbaa !91
  %40 = load ptr, ptr %6, align 8, !tbaa !16
  %41 = getelementptr inbounds nuw %struct.PJ_XYZ, ptr %40, i32 0, i32 1
  %42 = load double, ptr %41, align 8, !tbaa !90
  %43 = fdiv double %39, %42
  %44 = load ptr, ptr %8, align 8, !tbaa !117
  store double %43, ptr %44, align 8, !tbaa !86
  br label %118

45:                                               ; preds = %4
  %46 = load ptr, ptr %6, align 8, !tbaa !16
  %47 = getelementptr inbounds nuw %struct.PJ_XYZ, ptr %46, i32 0, i32 0
  %48 = load double, ptr %47, align 8, !tbaa !88
  %49 = fneg double %48
  %50 = load ptr, ptr %6, align 8, !tbaa !16
  %51 = getelementptr inbounds nuw %struct.PJ_XYZ, ptr %50, i32 0, i32 2
  %52 = load double, ptr %51, align 8, !tbaa !91
  %53 = fdiv double %49, %52
  %54 = load ptr, ptr %7, align 8, !tbaa !117
  store double %53, ptr %54, align 8, !tbaa !86
  %55 = load ptr, ptr %6, align 8, !tbaa !16
  %56 = getelementptr inbounds nuw %struct.PJ_XYZ, ptr %55, i32 0, i32 1
  %57 = load double, ptr %56, align 8, !tbaa !90
  %58 = fneg double %57
  %59 = load ptr, ptr %6, align 8, !tbaa !16
  %60 = getelementptr inbounds nuw %struct.PJ_XYZ, ptr %59, i32 0, i32 2
  %61 = load double, ptr %60, align 8, !tbaa !91
  %62 = fdiv double %58, %61
  %63 = load ptr, ptr %8, align 8, !tbaa !117
  store double %62, ptr %63, align 8, !tbaa !86
  br label %118

64:                                               ; preds = %4
  %65 = load ptr, ptr %6, align 8, !tbaa !16
  %66 = getelementptr inbounds nuw %struct.PJ_XYZ, ptr %65, i32 0, i32 2
  %67 = load double, ptr %66, align 8, !tbaa !91
  %68 = load ptr, ptr %6, align 8, !tbaa !16
  %69 = getelementptr inbounds nuw %struct.PJ_XYZ, ptr %68, i32 0, i32 0
  %70 = load double, ptr %69, align 8, !tbaa !88
  %71 = fdiv double %67, %70
  %72 = load ptr, ptr %7, align 8, !tbaa !117
  store double %71, ptr %72, align 8, !tbaa !86
  %73 = load ptr, ptr %6, align 8, !tbaa !16
  %74 = getelementptr inbounds nuw %struct.PJ_XYZ, ptr %73, i32 0, i32 1
  %75 = load double, ptr %74, align 8, !tbaa !90
  %76 = load ptr, ptr %6, align 8, !tbaa !16
  %77 = getelementptr inbounds nuw %struct.PJ_XYZ, ptr %76, i32 0, i32 0
  %78 = load double, ptr %77, align 8, !tbaa !88
  %79 = fdiv double %75, %78
  %80 = load ptr, ptr %8, align 8, !tbaa !117
  store double %79, ptr %80, align 8, !tbaa !86
  br label %118

81:                                               ; preds = %4
  %82 = load ptr, ptr %6, align 8, !tbaa !16
  %83 = getelementptr inbounds nuw %struct.PJ_XYZ, ptr %82, i32 0, i32 2
  %84 = load double, ptr %83, align 8, !tbaa !91
  %85 = load ptr, ptr %6, align 8, !tbaa !16
  %86 = getelementptr inbounds nuw %struct.PJ_XYZ, ptr %85, i32 0, i32 1
  %87 = load double, ptr %86, align 8, !tbaa !90
  %88 = fdiv double %84, %87
  %89 = load ptr, ptr %7, align 8, !tbaa !117
  store double %88, ptr %89, align 8, !tbaa !86
  %90 = load ptr, ptr %6, align 8, !tbaa !16
  %91 = getelementptr inbounds nuw %struct.PJ_XYZ, ptr %90, i32 0, i32 0
  %92 = load double, ptr %91, align 8, !tbaa !88
  %93 = fneg double %92
  %94 = load ptr, ptr %6, align 8, !tbaa !16
  %95 = getelementptr inbounds nuw %struct.PJ_XYZ, ptr %94, i32 0, i32 1
  %96 = load double, ptr %95, align 8, !tbaa !90
  %97 = fdiv double %93, %96
  %98 = load ptr, ptr %8, align 8, !tbaa !117
  store double %97, ptr %98, align 8, !tbaa !86
  br label %118

99:                                               ; preds = %4
  %100 = load ptr, ptr %6, align 8, !tbaa !16
  %101 = getelementptr inbounds nuw %struct.PJ_XYZ, ptr %100, i32 0, i32 1
  %102 = load double, ptr %101, align 8, !tbaa !90
  %103 = fneg double %102
  %104 = load ptr, ptr %6, align 8, !tbaa !16
  %105 = getelementptr inbounds nuw %struct.PJ_XYZ, ptr %104, i32 0, i32 2
  %106 = load double, ptr %105, align 8, !tbaa !91
  %107 = fdiv double %103, %106
  %108 = load ptr, ptr %7, align 8, !tbaa !117
  store double %107, ptr %108, align 8, !tbaa !86
  %109 = load ptr, ptr %6, align 8, !tbaa !16
  %110 = getelementptr inbounds nuw %struct.PJ_XYZ, ptr %109, i32 0, i32 0
  %111 = load double, ptr %110, align 8, !tbaa !88
  %112 = fneg double %111
  %113 = load ptr, ptr %6, align 8, !tbaa !16
  %114 = getelementptr inbounds nuw %struct.PJ_XYZ, ptr %113, i32 0, i32 2
  %115 = load double, ptr %114, align 8, !tbaa !91
  %116 = fdiv double %112, %115
  %117 = load ptr, ptr %8, align 8, !tbaa !117
  store double %116, ptr %117, align 8, !tbaa !86
  br label %118

118:                                              ; preds = %99, %81, %64, %45, %27, %10
  ret void
}

; Function Attrs: mustprogress uwtable
define internal { double, double } @_ZL10s2_forward5PJ_LPP8PJconsts(double %0, double %1, ptr noundef %2) #2 {
  %4 = alloca %struct.PJ_XY, align 8
  %5 = alloca %struct.PJ_LP, align 8
  %6 = alloca ptr, align 8
  %7 = alloca ptr, align 8
  %8 = alloca double, align 8
  %9 = alloca double, align 8
  %10 = alloca double, align 8
  %11 = alloca double, align 8
  %12 = alloca double, align 8
  %13 = alloca double, align 8
  %14 = alloca double, align 8
  %15 = alloca double, align 8
  %16 = alloca %struct.PJ_XYZ, align 8
  %17 = alloca %struct.PJ_XY, align 8
  %18 = alloca double, align 8
  %19 = alloca double, align 8
  %20 = getelementptr inbounds nuw { double, double }, ptr %5, i32 0, i32 0
  store double %0, ptr %20, align 8
  %21 = getelementptr inbounds nuw { double, double }, ptr %5, i32 0, i32 1
  store double %1, ptr %21, align 8
  store ptr %2, ptr %6, align 8, !tbaa !29
  call void @llvm.lifetime.start.p0(i64 8, ptr %7) #5
  %22 = load ptr, ptr %6, align 8, !tbaa !29
  %23 = getelementptr inbounds nuw %struct.PJconsts, ptr %22, i32 0, i32 11
  %24 = load ptr, ptr %23, align 8, !tbaa !62
  store ptr %24, ptr %7, align 8, !tbaa !60
  call void @llvm.lifetime.start.p0(i64 8, ptr %8) #5
  %25 = load ptr, ptr %6, align 8, !tbaa !29
  %26 = getelementptr inbounds nuw %struct.PJconsts, ptr %25, i32 0, i32 27
  %27 = load double, ptr %26, align 8, !tbaa !74
  %28 = fcmp une double %27, 0.000000e+00
  br i1 %28, label %29, label %38

29:                                               ; preds = %3
  %30 = load ptr, ptr %7, align 8, !tbaa !60
  %31 = getelementptr inbounds nuw %"struct.(anonymous namespace)::pj_s2", ptr %30, i32 0, i32 3
  %32 = load double, ptr %31, align 8, !tbaa !79
  %33 = getelementptr inbounds nuw %struct.PJ_LP, ptr %5, i32 0, i32 1
  %34 = load double, ptr %33, align 8, !tbaa !93
  %35 = call double @tan(double noundef %34) #5, !tbaa !92
  %36 = fmul double %32, %35
  %37 = call double @atan(double noundef %36) #5, !tbaa !92
  store double %37, ptr %8, align 8, !tbaa !86
  br label %41

38:                                               ; preds = %3
  %39 = getelementptr inbounds nuw %struct.PJ_LP, ptr %5, i32 0, i32 1
  %40 = load double, ptr %39, align 8, !tbaa !93
  store double %40, ptr %8, align 8, !tbaa !86
  br label %41

41:                                               ; preds = %38, %29
  call void @llvm.lifetime.start.p0(i64 8, ptr %9) #5
  call void @llvm.lifetime.start.p0(i64 8, ptr %10) #5
  call void @llvm.lifetime.start.p0(i64 8, ptr %11) #5
  call void @llvm.lifetime.start.p0(i64 8, ptr %12) #5
  call void @llvm.lifetime.start.p0(i64 8, ptr %13) #5
  call void @llvm.lifetime.start.p0(i64 8, ptr %14) #5
  call void @llvm.lifetime.start.p0(i64 8, ptr %15) #5
  %42 = load double, ptr %8, align 8, !tbaa !86
  %43 = call double @sin(double noundef %42) #5, !tbaa !92
  store double %43, ptr %12, align 8, !tbaa !86
  %44 = load double, ptr %8, align 8, !tbaa !86
  %45 = call double @cos(double noundef %44) #5, !tbaa !92
  store double %45, ptr %13, align 8, !tbaa !86
  %46 = getelementptr inbounds nuw %struct.PJ_LP, ptr %5, i32 0, i32 0
  %47 = load double, ptr %46, align 8, !tbaa !95
  %48 = call double @sin(double noundef %47) #5, !tbaa !92
  store double %48, ptr %14, align 8, !tbaa !86
  %49 = getelementptr inbounds nuw %struct.PJ_LP, ptr %5, i32 0, i32 0
  %50 = load double, ptr %49, align 8, !tbaa !95
  %51 = call double @cos(double noundef %50) #5, !tbaa !92
  store double %51, ptr %15, align 8, !tbaa !86
  %52 = load double, ptr %13, align 8, !tbaa !86
  %53 = load double, ptr %15, align 8, !tbaa !86
  %54 = fmul double %52, %53
  store double %54, ptr %9, align 8, !tbaa !86
  %55 = load double, ptr %13, align 8, !tbaa !86
  %56 = load double, ptr %14, align 8, !tbaa !86
  %57 = fmul double %55, %56
  store double %57, ptr %10, align 8, !tbaa !86
  %58 = load double, ptr %12, align 8, !tbaa !86
  store double %58, ptr %11, align 8, !tbaa !86
  call void @llvm.lifetime.start.p0(i64 24, ptr %16) #5
  %59 = getelementptr inbounds nuw %struct.PJ_XYZ, ptr %16, i32 0, i32 0
  %60 = load double, ptr %9, align 8, !tbaa !86
  store double %60, ptr %59, align 8, !tbaa !88
  %61 = getelementptr inbounds nuw %struct.PJ_XYZ, ptr %16, i32 0, i32 1
  %62 = load double, ptr %10, align 8, !tbaa !86
  store double %62, ptr %61, align 8, !tbaa !90
  %63 = getelementptr inbounds nuw %struct.PJ_XYZ, ptr %16, i32 0, i32 2
  %64 = load double, ptr %11, align 8, !tbaa !86
  store double %64, ptr %63, align 8, !tbaa !91
  call void @llvm.lifetime.start.p0(i64 16, ptr %17) #5
  %65 = load ptr, ptr %7, align 8, !tbaa !60
  %66 = getelementptr inbounds nuw %"struct.(anonymous namespace)::pj_s2", ptr %65, i32 0, i32 0
  %67 = load i32, ptr %66, align 8, !tbaa !73
  %68 = getelementptr inbounds nuw %struct.PJ_XY, ptr %17, i32 0, i32 0
  %69 = getelementptr inbounds nuw %struct.PJ_XY, ptr %17, i32 0, i32 1
  call void @_Z16ValidFaceXYZtoUViRK6PJ_XYZPdS2_(i32 noundef %67, ptr noundef nonnull align 8 dereferenceable(24) %16, ptr noundef %68, ptr noundef %69)
  call void @llvm.lifetime.start.p0(i64 8, ptr %18) #5
  %70 = getelementptr inbounds nuw %struct.PJ_XY, ptr %17, i32 0, i32 0
  %71 = load double, ptr %70, align 8, !tbaa !84
  %72 = load ptr, ptr %7, align 8, !tbaa !60
  %73 = getelementptr inbounds nuw %"struct.(anonymous namespace)::pj_s2", ptr %72, i32 0, i32 4
  %74 = load i32, ptr %73, align 8, !tbaa !66
  %75 = call noundef double @_ZL6UVtoSTd16S2ProjectionType(double noundef %71, i32 noundef %74)
  store double %75, ptr %18, align 8, !tbaa !86
  call void @llvm.lifetime.start.p0(i64 8, ptr %19) #5
  %76 = getelementptr inbounds nuw %struct.PJ_XY, ptr %17, i32 0, i32 1
  %77 = load double, ptr %76, align 8, !tbaa !87
  %78 = load ptr, ptr %7, align 8, !tbaa !60
  %79 = getelementptr inbounds nuw %"struct.(anonymous namespace)::pj_s2", ptr %78, i32 0, i32 4
  %80 = load i32, ptr %79, align 8, !tbaa !66
  %81 = call noundef double @_ZL6UVtoSTd16S2ProjectionType(double noundef %77, i32 noundef %80)
  store double %81, ptr %19, align 8, !tbaa !86
  %82 = getelementptr inbounds nuw %struct.PJ_XY, ptr %4, i32 0, i32 0
  %83 = load double, ptr %18, align 8, !tbaa !86
  store double %83, ptr %82, align 8, !tbaa !84
  %84 = getelementptr inbounds nuw %struct.PJ_XY, ptr %4, i32 0, i32 1
  %85 = load double, ptr %19, align 8, !tbaa !86
  store double %85, ptr %84, align 8, !tbaa !87
  call void @llvm.lifetime.end.p0(i64 8, ptr %19) #5
  call void @llvm.lifetime.end.p0(i64 8, ptr %18) #5
  call void @llvm.lifetime.end.p0(i64 16, ptr %17) #5
  call void @llvm.lifetime.end.p0(i64 24, ptr %16) #5
  call void @llvm.lifetime.end.p0(i64 8, ptr %15) #5
  call void @llvm.lifetime.end.p0(i64 8, ptr %14) #5
  call void @llvm.lifetime.end.p0(i64 8, ptr %13) #5
  call void @llvm.lifetime.end.p0(i64 8, ptr %12) #5
  call void @llvm.lifetime.end.p0(i64 8, ptr %11) #5
  call void @llvm.lifetime.end.p0(i64 8, ptr %10) #5
  call void @llvm.lifetime.end.p0(i64 8, ptr %9) #5
  call void @llvm.lifetime.end.p0(i64 8, ptr %8) #5
  call void @llvm.lifetime.end.p0(i64 8, ptr %7) #5
  %86 = load { double, double }, ptr %4, align 8
  ret { double, double } %86
}