; Function Attrs: mustprogress nofree nounwind uwtable
define internal { double, double } @_ZL10s2_forward5PJ_LPP8PJconsts(double %0, double %1, ptr noundef readonly captures(none) %2) #9 {
  %4 = alloca double, align 8
  %5 = alloca double, align 8
  %6 = getelementptr inbounds nuw i8, ptr %2, i64 88
  %7 = load ptr, ptr %6, align 8, !tbaa !45
  %8 = getelementptr inbounds nuw i8, ptr %2, i64 216
  %9 = load double, ptr %8, align 8, !tbaa !63
  %10 = fcmp une double %9, 0.000000e+00
  br i1 %10, label %11, label %17

11:                                               ; preds = %3
  %12 = getelementptr inbounds nuw i8, ptr %7, i64 24
  %13 = load double, ptr %12, align 8, !tbaa !68
  %14 = tail call double @tan(double noundef %1) #24, !tbaa !72
  %15 = fmul double %13, %14
  %16 = tail call double @atan(double noundef %15) #24, !tbaa !72
  br label %17

17:                                               ; preds = %3, %11
  %.0 = phi double [ %16, %11 ], [ %1, %3 ]
  %18 = tail call double @sin(double noundef %.0) #24, !tbaa !72
  %19 = tail call double @cos(double noundef %.0) #24, !tbaa !72
  %20 = tail call double @sin(double noundef %0) #24, !tbaa !72
  %21 = tail call double @cos(double noundef %0) #24, !tbaa !72
  %22 = fmul double %19, %21
  %23 = fmul double %19, %20
  %24 = load i32, ptr %7, align 8, !tbaa !62
  switch i32 %24, label %44 [
    i32 0, label %25
    i32 1, label %28
    i32 2, label %32
    i32 3, label %37
    i32 4, label %40
  ]

25:                                               ; preds = %17
  %26 = fdiv double %23, %22
  %27 = fdiv double %18, %22
  br label %_Z16ValidFaceXYZtoUViRK6PJ_XYZPdS2_.exit

28:                                               ; preds = %17
  %29 = fneg double %22
  %30 = fdiv double %29, %23
  %31 = fdiv double %18, %23
  br label %_Z16ValidFaceXYZtoUViRK6PJ_XYZPdS2_.exit

32:                                               ; preds = %17
  %33 = fneg double %22
  %34 = fdiv double %33, %18
  %35 = fneg double %23
  %36 = fdiv double %35, %18
  br label %_Z16ValidFaceXYZtoUViRK6PJ_XYZPdS2_.exit

37:                                               ; preds = %17
  %38 = fdiv double %18, %22
  %39 = fdiv double %23, %22
  br label %_Z16ValidFaceXYZtoUViRK6PJ_XYZPdS2_.exit

40:                                               ; preds = %17
  %41 = fdiv double %18, %23
  %42 = fneg double %22
  %43 = fdiv double %42, %23
  br label %_Z16ValidFaceXYZtoUViRK6PJ_XYZPdS2_.exit

44:                                               ; preds = %17
  %45 = fneg double %23
  %46 = fdiv double %45, %18
  %47 = fneg double %22
  %48 = fdiv double %47, %18
  br label %_Z16ValidFaceXYZtoUViRK6PJ_XYZPdS2_.exit

_Z16ValidFaceXYZtoUViRK6PJ_XYZPdS2_.exit:         ; preds = %25, %28, %32, %37, %40, %44
  %.sroa.0.0 = phi double [ %46, %44 ], [ %41, %40 ], [ %38, %37 ], [ %34, %32 ], [ %30, %28 ], [ %26, %25 ]
  %.sink.i = phi double [ %48, %44 ], [ %43, %40 ], [ %39, %37 ], [ %36, %32 ], [ %31, %28 ], [ %27, %25 ]
  %49 = getelementptr inbounds nuw i8, ptr %7, i64 32
  %50 = load i32, ptr %49, align 8, !tbaa !55
  switch i32 %50, label %_ZL6UVtoSTd16S2ProjectionType.exit23 [
    i32 0, label %_ZL6UVtoSTd16S2ProjectionType.exit.thread
    i32 1, label %55
    i32 2, label %_ZL6UVtoSTd16S2ProjectionType.exit.thread52
  ]

_ZL6UVtoSTd16S2ProjectionType.exit.thread:        ; preds = %_Z16ValidFaceXYZtoUViRK6PJ_XYZPdS2_.exit
  %51 = fadd double %.sroa.0.0, 1.000000e+00
  %52 = fmul double %51, 5.000000e-01
  %53 = fadd double %.sink.i, 1.000000e+00
  %54 = fmul double %53, 5.000000e-01
  br label %_ZL6UVtoSTd16S2ProjectionType.exit23

55:                                               ; preds = %_Z16ValidFaceXYZtoUViRK6PJ_XYZPdS2_.exit
  %56 = fcmp ult double %.sroa.0.0, 0.000000e+00
  br i1 %56, label %61, label %57

57:                                               ; preds = %55
  %58 = tail call double @llvm.fmuladd.f64(double %.sroa.0.0, double 3.000000e+00, double 1.000000e+00)
  %59 = tail call double @sqrt(double noundef %58) #24, !tbaa !72
  %60 = fmul double %59, 5.000000e-01
  br label %_ZL6UVtoSTd16S2ProjectionType.exit.thread49

61:                                               ; preds = %55
  %62 = tail call double @llvm.fmuladd.f64(double %.sroa.0.0, double -3.000000e+00, double 1.000000e+00)
  %63 = tail call double @sqrt(double noundef %62) #24, !tbaa !72
  %64 = tail call double @llvm.fmuladd.f64(double %63, double -5.000000e-01, double 1.000000e+00)
  br label %_ZL6UVtoSTd16S2ProjectionType.exit.thread49

_ZL6UVtoSTd16S2ProjectionType.exit.thread52:      ; preds = %_Z16ValidFaceXYZtoUViRK6PJ_XYZPdS2_.exit
  call void @llvm.lifetime.start.p0(i64 8, ptr nonnull %5)
  %65 = tail call double @atan(double noundef %.sroa.0.0) #24, !tbaa !72
  store volatile double %65, ptr %5, align 8, !tbaa !73
  %.0..0..0..0..0..0..i = load volatile double, ptr %5, align 8, !tbaa !73
  %66 = fadd double %.0..0..0..0..0..0..i, 0x3FE921FB54442D18
  %67 = fmul double %66, 0x3FE45F306DC9C883
  call void @llvm.lifetime.end.p0(i64 8, ptr nonnull %5)
  call void @llvm.lifetime.start.p0(i64 8, ptr nonnull %4)
  %68 = tail call double @atan(double noundef %.sink.i) #24, !tbaa !72
  store volatile double %68, ptr %4, align 8, !tbaa !73
  %.0..0..0..0..0..0..i21 = load volatile double, ptr %4, align 8, !tbaa !73
  %69 = fadd double %.0..0..0..0..0..0..i21, 0x3FE921FB54442D18
  %70 = fmul double %69, 0x3FE45F306DC9C883
  call void @llvm.lifetime.end.p0(i64 8, ptr nonnull %4)
  br label %_ZL6UVtoSTd16S2ProjectionType.exit23

_ZL6UVtoSTd16S2ProjectionType.exit.thread49:      ; preds = %61, %57
  %.0.i51 = phi double [ %60, %57 ], [ %64, %61 ]
  %71 = fcmp ult double %.sink.i, 0.000000e+00
  br i1 %71, label %76, label %72

72:                                               ; preds = %_ZL6UVtoSTd16S2ProjectionType.exit.thread49
  %73 = tail call double @llvm.fmuladd.f64(double %.sink.i, double 3.000000e+00, double 1.000000e+00)
  %74 = tail call double @sqrt(double noundef %73) #24, !tbaa !72
  %75 = fmul double %74, 5.000000e-01
  br label %_ZL6UVtoSTd16S2ProjectionType.exit23

76:                                               ; preds = %_ZL6UVtoSTd16S2ProjectionType.exit.thread49
  %77 = tail call double @llvm.fmuladd.f64(double %.sink.i, double -3.000000e+00, double 1.000000e+00)
  %78 = tail call double @sqrt(double noundef %77) #24, !tbaa !72
  %79 = tail call double @llvm.fmuladd.f64(double %78, double -5.000000e-01, double 1.000000e+00)
  br label %_ZL6UVtoSTd16S2ProjectionType.exit23

_ZL6UVtoSTd16S2ProjectionType.exit23:             ; preds = %_Z16ValidFaceXYZtoUViRK6PJ_XYZPdS2_.exit, %_ZL6UVtoSTd16S2ProjectionType.exit.thread, %72, %76, %_ZL6UVtoSTd16S2ProjectionType.exit.thread52
  %.0.i48 = phi double [ %67, %_ZL6UVtoSTd16S2ProjectionType.exit.thread52 ], [ %.0.i51, %72 ], [ %.0.i51, %76 ], [ %52, %_ZL6UVtoSTd16S2ProjectionType.exit.thread ], [ %.sroa.0.0, %_Z16ValidFaceXYZtoUViRK6PJ_XYZPdS2_.exit ]
  %.0.i22 = phi double [ %70, %_ZL6UVtoSTd16S2ProjectionType.exit.thread52 ], [ %75, %72 ], [ %79, %76 ], [ %54, %_ZL6UVtoSTd16S2ProjectionType.exit.thread ], [ %.sink.i, %_Z16ValidFaceXYZtoUViRK6PJ_XYZPdS2_.exit ]
  %.fca.0.insert = insertvalue { double, double } poison, double %.0.i48, 0
  %.fca.1.insert = insertvalue { double, double } %.fca.0.insert, double %.0.i22, 1
  ret { double, double } %.fca.1.insert
}